target datalayout = "e-m:e-p270:32:32-p271:32:32-p272:64:64-i64:64-i128:128-f80:128-n8:16:32:64-S128"
target triple = "x86_64-unknown-linux-gnu"

%"class.std::__cxx11::basic_string" = type { %"struct.std::__cxx11::basic_string<char>::_Alloc_hider", i64, %union.anon.0 }
%"struct.std::__cxx11::basic_string<char>::_Alloc_hider" = type { ptr }
%union.anon.0 = type { i64, [8 x i8] }
%"struct.OpenImageIO_v2_6_0::ErrorHolder" = type { %"class.std::__cxx11::basic_string" }

@_ZN18OpenImageIO_v2_6_0L16error_msg_holderE = internal thread_local global %"struct.OpenImageIO_v2_6_0::ErrorHolder" zeroinitializer, align 8
@_ZTHN18OpenImageIO_v2_6_0L16error_msg_holderE = internal alias void (), ptr @__tls_init

; Function Attrs: uwtable
define internal noundef ptr @_ZTWN18OpenImageIO_v2_6_0L16error_msg_holderE() #7 {
  call void @_ZTHN18OpenImageIO_v2_6_0L16error_msg_holderE()
  %1 = call align 8 ptr @llvm.threadlocal.address.p0(ptr align 8 @_ZN18OpenImageIO_v2_6_0L16error_msg_holderE)
  ret ptr %1
}

; Function Attrs: mustprogress uwtable
define noundef zeroext i1 @_ZN18OpenImageIO_v2_6_09has_errorEv() #6 {
entry:
  %error_msg = alloca ptr, align 8
  %0 = call ptr @_ZTWN18OpenImageIO_v2_6_0L16error_msg_holderE()
  %error_msg1 = getelementptr inbounds %"struct.OpenImageIO_v2_6_0::ErrorHolder", ptr %0, i32 0, i32 0
  store ptr %error_msg1, ptr %error_msg, align 8
  %1 = load ptr, ptr %error_msg, align 8
  %call = call noundef zeroext i1 @_ZNKSt7__cxx1112basic_stringIcSt11char_traitsIcESaIcEE5emptyEv(ptr noundef nonnull align 8 dereferenceable(32) %1) #3
  %lnot = xor i1 %call, true
  ret i1 %lnot
}