; Function Attrs: nounwind uwtable
define noundef zeroext i1 @_ZN18OpenImageIO_v2_6_09has_errorEv() local_unnamed_addr #11 {
entry:
  %.b.i.i = load i1, ptr @__tls_guard, align 1
  br i1 %.b.i.i, label %_ZTWN18OpenImageIO_v2_6_0L16error_msg_holderE.exit, label %init.i.i, !prof !4

init.i.i:                                         ; preds = %entry
  store i1 true, ptr @__tls_guard, align 1
  tail call fastcc void @__cxx_global_var_init.18()
  br label %_ZTWN18OpenImageIO_v2_6_0L16error_msg_holderE.exit

_ZTWN18OpenImageIO_v2_6_0L16error_msg_holderE.exit: ; preds = %entry, %init.i.i
  %0 = tail call noundef nonnull align 8 ptr @llvm.threadlocal.address.p0(ptr align 8 @_ZN18OpenImageIO_v2_6_0L16error_msg_holderE)
  %call = tail call noundef zeroext i1 @_ZNKSt7__cxx1112basic_stringIcSt11char_traitsIcESaIcEE5emptyEv(ptr noundef nonnull align 8 dereferenceable(32) %0) #8
  %lnot = xor i1 %call, true
  ret i1 %lnot
}